Certificate:
    Data:
        Version: 3 (0x2)
        Serial Number: 1 (0x1)
    Signature Algorithm: sha256WithRSAEncryption
        Issuer: CN=devcert
        Validity
            Not Before: Jul 10 04:38:19 2020 GMT
            Not After : Oct 13 04:38:19 2022 GMT
        Subject: CN=localhost
        Subject Public Key Info:
            Public Key Algorithm: rsaEncryption
                Public-Key: (2048 bit)
                Modulus:
                    00:af:20:13:8e:ae:1e:ef:b0:94:b8:6c:b5:c5:03:
                    5b:ed:8d:1a:08:2d:cc:06:e3:27:a0:cb:3b:33:f3:
                    71:34:76:6d:6f:bd:dc:d9:30:3f:03:a2:7b:a1:2c:
                    0b:0a:54:b5:72:3c:b5:55:6f:09:94:2d:32:b1:b4:
                    4b:04:7f:64:a7:de:6a:f2:fb:ce:85:4d:b2:75:24:
                    4d:1c:4f:6a:0b:db:ed:95:d8:c6:af:b8:b5:77:f1:
                    e4:72:b3:b4:be:5d:89:d5:94:5c:5e:a1:67:f5:3d:
                    e0:ac:ed:c1:ba:89:a9:c1:e4:4d:00:61:e0:62:b2:
                    d9:31:d2:c0:46:f0:6e:7c:4f:a5:21:9a:e8:95:fb:
                    68:18:be:7a:4c:9c:2a:7c:e0:86:2f:f4:2a:86:f0:
                    c5:8f:1f:81:23:d3:62:1f:ef:d0:2c:ef:c3:92:da:
                    0b:8c:a2:b8:65:12:4c:3b:11:a0:39:eb:f8:74:7a:
                    34:f4:ee:c5:1f:33:3e:c3:0d:02:5f:05:18:66:9e:
                    e2:99:5d:69:82:b3:90:98:b2:4c:12:cf:5c:74:cd:
                    4f:ef:ab:1e:01:2c:2f:ca:01:0b:98:76:5b:5d:71:
                    fd:9e:e6:2e:70:75:83:72:45:1b:bb:d6:81:26:8a:
                    ee:41:ab:c7:09:9f:f2:59:c9:16:b3:f9:9f:23:5c:
                    13:33
                Exponent: 65537 (0x10001)
        X509v3 extensions:
            X509v3 Basic Constraints: critical
                CA:FALSE
            X509v3 Subject Key Identifier: 
                24:2A:87:0B:FC:40:99:2C:BB:B9:67:BF:FC:8C:C7:9F:9C:32:0F:38
            X509v3 Authority Key Identifier: 
                keyid:D2:42:C0:65:B0:9A:A9:D8:C8:C8:F7:EA:3E:E0:59:8D:B2:62:35:7B
                DirName:/CN=devcert
                serial:DB:31:05:7F:8A:CD:59:4B

            X509v3 Key Usage: critical
                Digital Signature, Key Encipherment
            X509v3 Extended Key Usage: 
                TLS Web Server Authentication
            X509v3 Subject Alternative Name: 
                DNS:localhost, DNS:*.localhost
    Signature Algorithm: sha256WithRSAEncryption
         68:a8:db:06:34:91:92:4b:7b:1b:2c:31:d5:d3:cc:63:2f:ff:
         c1:a7:ac:7f:3d:b9:e7:a7:1f:5a:36:36:c9:87:3f:50:f1:b6:
         5f:ae:fa:f4:1b:e0:71:d5:f6:0c:f5:49:9c:f0:6e:85:ed:f1:
         fb:3f:0c:7c:8b:8c:1f:68:17:b8:83:3e:19:27:ce:15:b0:6b:
         c1:30:5b:53:cd:3d:8b:f2:ca:c5:e9:20:37:bc:a2:86:d2:52:
         da:8b:d6:82:f7:bd:52:c8:1b:e3:c7:2d:ce:2a:16:b0:9e:7f:
         5d:e3:3c:e7:5a:d9:63:b9:d7:78:8a:5d:9e:ea:82:65:f9:7d:
         b5:cc:47:d7:27:25:55:d5:cd:f2:2f:9f:a5:ce:66:37:97:78:
         b6:1c:a6:2c:cd:c1:b1:a6:78:64:97:49:3a:99:e6:85:83:05:
         9d:3c:27:10:1b:b4:70:3d:74:df:0e:e1:d2:fa:65:1b:6b:08:
         fb:a4:d0:e6:7e:c3:3e:61:09:92:aa:ae:22:46:22:fc:ee:4f:
         d3:d0:55:a3:ce:04:52:df:f1:11:40:8c:c9:85:07:6b:75:69:
         7e:8f:06:fe:29:27:6f:35:36:b1:0b:96:a8:b9:ba:3d:95:e8:
         26:f5:7f:ab:9f:ce:8f:c8:36:04:a8:25:2c:06:9f:51:30:ef:
         a8:2e:a0:2f
-----BEGIN CERTIFICATE-----
MIIDXjCCAkagAwIBAgIBATANBgkqhkiG9w0BAQsFADASMRAwDgYDVQQDDAdkZXZj
ZXJ0MB4XDTIwMDcxMDA0MzgxOVoXDTIyMTAxMzA0MzgxOVowFDESMBAGA1UEAwwJ
bG9jYWxob3N0MIIBIjANBgkqhkiG9w0BAQEFAAOCAQ8AMIIBCgKCAQEAryATjq4e
77CUuGy1xQNb7Y0aCC3MBuMnoMs7M/NxNHZtb73c2TA/A6J7oSwLClS1cjy1VW8J
lC0ysbRLBH9kp95q8vvOhU2ydSRNHE9qC9vtldjGr7i1d/HkcrO0vl2J1ZRcXqFn
9T3grO3BuompweRNAGHgYrLZMdLARvBufE+lIZrolftoGL56TJwqfOCGL/QqhvDF
jx+BI9NiH+/QLO/DktoLjKK4ZRJMOxGgOev4dHo09O7FHzM+ww0CXwUYZp7imV1p
grOQmLJMEs9cdM1P76seASwvygELmHZbXXH9nuYucHWDckUbu9aBJoruQavHCZ/y
WckWs/mfI1wTMwIDAQABo4G8MIG5MAwGA1UdEwEB/wQCMAAwHQYDVR0OBBYEFCQq
hwv8QJksu7lnv/yMx5+cMg84MEIGA1UdIwQ7MDmAFNJCwGWwmqnYyMj36j7gWY2y
YjV7oRakFDASMRAwDgYDVQQDDAdkZXZjZXJ0ggkA2zEFf4rNWUswDgYDVR0PAQH/
BAQDAgWgMBMGA1UdJQQMMAoGCCsGAQUFBwMBMCEGA1UdEQQaMBiCCWxvY2FsaG9z
dIILKi5sb2NhbGhvc3QwDQYJKoZIhvcNAQELBQADggEBAGio2wY0kZJLexssMdXT
zGMv/8GnrH89ueenH1o2NsmHP1Dxtl+u+vQb4HHV9gz1SZzwboXt8fs/DHyLjB9o
F7iDPhknzhWwa8EwW1PNPYvyysXpIDe8oobSUtqL1oL3vVLIG+PHLc4qFrCef13j
POda2WO513iKXZ7qgmX5fbXMR9cnJVXVzfIvn6XOZjeXeLYcpizNwbGmeGSXSTqZ
5oWDBZ08JxAbtHA9dN8O4dL6ZRtrCPuk0OZ+wz5hCZKqriJGIvzuT9PQVaPOBFLf
8RFAjMmFB2t1aX6PBv4pJ281NrELlqi5uj2V6Cb1f6ufzo/INgSoJSwGn1Ew76gu
oC8=
-----END CERTIFICATE-----
